target datalayout = "e-m:e-p270:32:32-p271:32:32-p272:64:64-i64:64-i128:128-f80:128-n8:16:32:64-S128"
target triple = "x86_64-pc-linux-gnu"

@.str.4 = private unnamed_addr constant [15 x i8] c"p_test_builtin\00", align 1
@.str.5 = private unnamed_addr constant [9 x i8] c"fips=yes\00", align 1
@.str.6 = private unnamed_addr constant [41 x i8] c"../openssl/test/provider_internal_test.c\00", align 1
@.str.7 = private unnamed_addr constant [75 x i8] c"prov = ossl_provider_new(NULL, name, PROVIDER_INIT_FUNCTION_NAME, NULL, 0)\00", align 1
@.str.8 = private unnamed_addr constant [1 x i8] zeroinitializer, align 1
@expected_greeting1.expected_greeting = internal global [256 x i8] zeroinitializer, align 16
@.str.20 = private unnamed_addr constant [40 x i8] c"Hello OpenSSL %.20s, greetings from %s!\00", align 1
@.str.21 = private unnamed_addr constant [6 x i8] c"3.5.0\00", align 1

; Function Attrs: nounwind uwtable
define internal ptr @expected_greeting1(ptr noundef %0) #0 {
  %2 = alloca ptr, align 8
  store ptr %0, ptr %2, align 8, !tbaa !4
  %3 = load ptr, ptr %2, align 8, !tbaa !4
  %4 = call i32 (ptr, i64, ptr, ...) @BIO_snprintf(ptr noundef @expected_greeting1.expected_greeting, i64 noundef 256, ptr noundef @.str.20, ptr noundef @.str.21, ptr noundef %3)
  ret ptr @expected_greeting1.expected_greeting
}

; Function Attrs: nounwind uwtable
define internal i32 @test_builtin_provider() #0 {
  %1 = alloca ptr, align 8
  %2 = alloca ptr, align 8
  %3 = alloca i32, align 4
  call void @llvm.lifetime.start.p0(i64 8, ptr %1) #3
  store ptr @.str.4, ptr %1, align 8, !tbaa !4
  call void @llvm.lifetime.start.p0(i64 8, ptr %2) #3
  store ptr null, ptr %2, align 8, !tbaa !9
  call void @llvm.lifetime.start.p0(i64 4, ptr %3) #3
  %4 = call i32 @EVP_set_default_properties(ptr noundef null, ptr noundef @.str.5)
  %5 = load ptr, ptr %1, align 8, !tbaa !4
  %6 = call ptr @ossl_provider_new(ptr noundef null, ptr noundef %5, ptr noundef @p_test_init, ptr noundef null, i32 noundef 0)
  store ptr %6, ptr %2, align 8, !tbaa !9
  %7 = call i32 @test_ptr(ptr noundef @.str.6, i32 noundef 67, ptr noundef @.str.7, ptr noundef %6)
  %8 = icmp ne i32 %7, 0
  br i1 %8, label %9, label %15

9:                                                ; preds = %0
  %10 = load ptr, ptr %2, align 8, !tbaa !9
  %11 = load ptr, ptr %1, align 8, !tbaa !4
  %12 = call ptr @expected_greeting1(ptr noundef %11)
  %13 = call i32 @test_provider(ptr noundef %10, ptr noundef %12)
  %14 = icmp ne i32 %13, 0
  br label %15

15:                                               ; preds = %9, %0
  %16 = phi i1 [ false, %0 ], [ %14, %9 ]
  %17 = zext i1 %16 to i32
  store i32 %17, ptr %3, align 4, !tbaa !11
  %18 = call i32 @EVP_set_default_properties(ptr noundef null, ptr noundef @.str.8)
  %19 = load i32, ptr %3, align 4, !tbaa !11
  call void @llvm.lifetime.end.p0(i64 4, ptr %3) #3
  call void @llvm.lifetime.end.p0(i64 8, ptr %2) #3
  call void @llvm.lifetime.end.p0(i64 8, ptr %1) #3
  ret i32 %19
}