; Function Attrs: nounwind uwtable
define internal range(i32 0, 2) i32 @test_builtin_provider() #0 {
  %1 = tail call i32 @EVP_set_default_properties(ptr noundef null, ptr noundef nonnull @.str.5) #2
  %2 = tail call ptr @ossl_provider_new(ptr noundef null, ptr noundef nonnull @.str.4, ptr noundef nonnull @p_test_init, ptr noundef null, i32 noundef 0) #2
  %3 = tail call i32 @test_ptr(ptr noundef nonnull @.str.6, i32 noundef 67, ptr noundef nonnull @.str.7, ptr noundef %2) #2
  %.not = icmp eq i32 %3, 0
  br i1 %.not, label %7, label %4

4:                                                ; preds = %0
  %5 = tail call i32 (ptr, i64, ptr, ...) @BIO_snprintf(ptr noundef nonnull @expected_greeting1.expected_greeting, i64 noundef 256, ptr noundef nonnull @.str.20, ptr noundef nonnull @.str.21, ptr noundef nonnull @.str.4) #2
  %6 = tail call fastcc i32 @test_provider(ptr noundef %2, ptr noundef nonnull @expected_greeting1.expected_greeting)
  br label %7

7:                                                ; preds = %4, %0
  %8 = phi i32 [ 0, %0 ], [ %6, %4 ]
  %9 = tail call i32 @EVP_set_default_properties(ptr noundef null, ptr noundef nonnull @.str.8) #2
  ret i32 %8
}